; Function Attrs: mustprogress uwtable
define hidden void @_ZN19fpa2bv_rewriter_cfg17updt_local_paramsERK10params_ref(ptr noundef nonnull readonly align 8 captures(none) dereferenceable(60) %0, ptr noundef nonnull align 8 dereferenceable(8) %1) local_unnamed_addr #3 align 2 personality ptr @__gxx_personality_v0 {
  %3 = alloca %struct.fpa2bv_rewriter_params, align 8
  call void @llvm.lifetime.start.p0(i64 16, ptr nonnull %3) #21
  store ptr %1, ptr %3, align 8, !tbaa !31
  %4 = getelementptr inbounds nuw i8, ptr %3, i64 8
  call void @_ZN7gparams10get_moduleEPKc(ptr dead_on_unwind nonnull writable sret(%class.params_ref) align 8 %4, ptr noundef nonnull @.str.9)
  %5 = load ptr, ptr %3, align 8, !tbaa !33
  %6 = invoke noundef zeroext i1 @_ZNK10params_ref8get_boolEPKcRKS_b(ptr noundef nonnull align 8 dereferenceable(8) %5, ptr noundef nonnull @.str.10, ptr noundef nonnull align 8 dereferenceable(8) %4, i1 noundef zeroext false)
          to label %_ZNK22fpa2bv_rewriter_params17hi_fp_unspecifiedEv.exit unwind label %11

_ZNK22fpa2bv_rewriter_params17hi_fp_unspecifiedEv.exit: ; preds = %2
  %7 = getelementptr inbounds nuw i8, ptr %0, i64 24
  %8 = load ptr, ptr %7, align 8, !tbaa !37
  %9 = zext i1 %6 to i8
  %10 = getelementptr inbounds nuw i8, ptr %8, i64 376
  store i8 %9, ptr %10, align 8, !tbaa !38
  call void @_ZN10params_refD1Ev(ptr noundef nonnull align 8 dereferenceable(8) %4) #21
  call void @llvm.lifetime.end.p0(i64 16, ptr nonnull %3) #21
  ret void

11:                                               ; preds = %2
  %12 = landingpad { ptr, i32 }
          cleanup
  call void @_ZN10params_refD1Ev(ptr noundef nonnull align 8 dereferenceable(8) %4) #21
  call void @llvm.lifetime.end.p0(i64 16, ptr nonnull %3) #21
  resume { ptr, i32 } %12
}